target datalayout = "e-m:e-p270:32:32-p271:32:32-p272:64:64-i64:64-i128:128-f80:128-n8:16:32:64-S128"
target triple = "x86_64-pc-linux-gnu"

%struct.X509_name_st = type { ptr, i32, ptr, ptr, i32 }
%struct.X509_name_entry_st = type { ptr, ptr, i32, i32 }

@.str = private unnamed_addr constant [34 x i8] c"../openssl/crypto/x509/x509name.c\00", align 1
@__func__.X509_NAME_add_entry = private unnamed_addr constant [20 x i8] c"X509_NAME_add_entry\00", align 1

; Function Attrs: inlinehint nounwind uwtable
define internal ptr @ossl_check_X509_NAME_ENTRY_type(ptr noundef %0) #4 {
  %2 = alloca ptr, align 8
  store ptr %0, ptr %2, align 8, !tbaa !26
  %3 = load ptr, ptr %2, align 8, !tbaa !26
  ret ptr %3
}

; Function Attrs: inlinehint nounwind uwtable
define internal ptr @ossl_check_X509_NAME_ENTRY_sk_type(ptr noundef %0) #4 {
  %2 = alloca ptr, align 8
  store ptr %0, ptr %2, align 8, !tbaa !25
  %3 = load ptr, ptr %2, align 8, !tbaa !25
  ret ptr %3
}

; Function Attrs: inlinehint nounwind uwtable
define internal ptr @ossl_check_const_X509_NAME_ENTRY_sk_type(ptr noundef %0) #4 {
  %2 = alloca ptr, align 8
  store ptr %0, ptr %2, align 8, !tbaa !25
  %3 = load ptr, ptr %2, align 8, !tbaa !25
  ret ptr %3
}

; Function Attrs: nounwind uwtable
define i32 @X509_NAME_add_entry(ptr noundef %0, ptr noundef %1, i32 noundef %2, i32 noundef %3) #0 {
  %5 = alloca i32, align 4
  %6 = alloca ptr, align 8
  %7 = alloca ptr, align 8
  %8 = alloca i32, align 4
  %9 = alloca i32, align 4
  %10 = alloca ptr, align 8
  %11 = alloca i32, align 4
  %12 = alloca i32, align 4
  %13 = alloca i32, align 4
  %14 = alloca ptr, align 8
  %15 = alloca i32, align 4
  store ptr %0, ptr %6, align 8, !tbaa !3
  store ptr %1, ptr %7, align 8, !tbaa !26
  store i32 %2, ptr %8, align 4, !tbaa !8
  store i32 %3, ptr %9, align 4, !tbaa !8
  call void @llvm.lifetime.start.p0(i64 8, ptr %10) #6
  store ptr null, ptr %10, align 8, !tbaa !26
  call void @llvm.lifetime.start.p0(i64 4, ptr %11) #6
  call void @llvm.lifetime.start.p0(i64 4, ptr %12) #6
  call void @llvm.lifetime.start.p0(i64 4, ptr %13) #6
  call void @llvm.lifetime.start.p0(i64 8, ptr %14) #6
  %16 = load ptr, ptr %6, align 8, !tbaa !3
  %17 = icmp eq ptr %16, null
  br i1 %17, label %18, label %19

18:                                               ; preds = %4
  store i32 0, ptr %5, align 4
  store i32 1, ptr %15, align 4
  br label %129

19:                                               ; preds = %4
  %20 = load ptr, ptr %6, align 8, !tbaa !3
  %21 = getelementptr inbounds nuw %struct.X509_name_st, ptr %20, i32 0, i32 0
  %22 = load ptr, ptr %21, align 8, !tbaa !21
  store ptr %22, ptr %14, align 8, !tbaa !25
  %23 = load ptr, ptr %14, align 8, !tbaa !25
  %24 = call ptr @ossl_check_const_X509_NAME_ENTRY_sk_type(ptr noundef %23)
  %25 = call i32 @OPENSSL_sk_num(ptr noundef %24)
  store i32 %25, ptr %11, align 4, !tbaa !8
  %26 = load i32, ptr %8, align 4, !tbaa !8
  %27 = load i32, ptr %11, align 4, !tbaa !8
  %28 = icmp sgt i32 %26, %27
  br i1 %28, label %29, label %31

29:                                               ; preds = %19
  %30 = load i32, ptr %11, align 4, !tbaa !8
  store i32 %30, ptr %8, align 4, !tbaa !8
  br label %37

31:                                               ; preds = %19
  %32 = load i32, ptr %8, align 4, !tbaa !8
  %33 = icmp slt i32 %32, 0
  br i1 %33, label %34, label %36

34:                                               ; preds = %31
  %35 = load i32, ptr %11, align 4, !tbaa !8
  store i32 %35, ptr %8, align 4, !tbaa !8
  br label %36

36:                                               ; preds = %34, %31
  br label %37

37:                                               ; preds = %36, %29
  %38 = load i32, ptr %9, align 4, !tbaa !8
  %39 = icmp eq i32 %38, 0
  %40 = zext i1 %39 to i32
  store i32 %40, ptr %13, align 4, !tbaa !8
  %41 = load ptr, ptr %6, align 8, !tbaa !3
  %42 = getelementptr inbounds nuw %struct.X509_name_st, ptr %41, i32 0, i32 1
  store i32 1, ptr %42, align 8, !tbaa !33
  %43 = load i32, ptr %9, align 4, !tbaa !8
  %44 = icmp eq i32 %43, -1
  br i1 %44, label %45, label %58

45:                                               ; preds = %37
  %46 = load i32, ptr %8, align 4, !tbaa !8
  %47 = icmp eq i32 %46, 0
  br i1 %47, label %48, label %49

48:                                               ; preds = %45
  store i32 0, ptr %9, align 4, !tbaa !8
  store i32 1, ptr %13, align 4, !tbaa !8
  br label %57

49:                                               ; preds = %45
  %50 = load ptr, ptr %14, align 8, !tbaa !25
  %51 = call ptr @ossl_check_const_X509_NAME_ENTRY_sk_type(ptr noundef %50)
  %52 = load i32, ptr %8, align 4, !tbaa !8
  %53 = sub nsw i32 %52, 1
  %54 = call ptr @OPENSSL_sk_value(ptr noundef %51, i32 noundef %53)
  %55 = getelementptr inbounds nuw %struct.X509_name_entry_st, ptr %54, i32 0, i32 2
  %56 = load i32, ptr %55, align 8, !tbaa !34
  store i32 %56, ptr %9, align 4, !tbaa !8
  br label %57

57:                                               ; preds = %49, %48
  br label %84

58:                                               ; preds = %37
  %59 = load i32, ptr %8, align 4, !tbaa !8
  %60 = load i32, ptr %11, align 4, !tbaa !8
  %61 = icmp sge i32 %59, %60
  br i1 %61, label %62, label %76

62:                                               ; preds = %58
  %63 = load i32, ptr %8, align 4, !tbaa !8
  %64 = icmp ne i32 %63, 0
  br i1 %64, label %65, label %74

65:                                               ; preds = %62
  %66 = load ptr, ptr %14, align 8, !tbaa !25
  %67 = call ptr @ossl_check_const_X509_NAME_ENTRY_sk_type(ptr noundef %66)
  %68 = load i32, ptr %8, align 4, !tbaa !8
  %69 = sub nsw i32 %68, 1
  %70 = call ptr @OPENSSL_sk_value(ptr noundef %67, i32 noundef %69)
  %71 = getelementptr inbounds nuw %struct.X509_name_entry_st, ptr %70, i32 0, i32 2
  %72 = load i32, ptr %71, align 8, !tbaa !34
  %73 = add nsw i32 %72, 1
  store i32 %73, ptr %9, align 4, !tbaa !8
  br label %75

74:                                               ; preds = %62
  store i32 0, ptr %9, align 4, !tbaa !8
  br label %75

75:                                               ; preds = %74, %65
  br label %83

76:                                               ; preds = %58
  %77 = load ptr, ptr %14, align 8, !tbaa !25
  %78 = call ptr @ossl_check_const_X509_NAME_ENTRY_sk_type(ptr noundef %77)
  %79 = load i32, ptr %8, align 4, !tbaa !8
  %80 = call ptr @OPENSSL_sk_value(ptr noundef %78, i32 noundef %79)
  %81 = getelementptr inbounds nuw %struct.X509_name_entry_st, ptr %80, i32 0, i32 2
  %82 = load i32, ptr %81, align 8, !tbaa !34
  store i32 %82, ptr %9, align 4, !tbaa !8
  br label %83

83:                                               ; preds = %76, %75
  br label %84

84:                                               ; preds = %83, %57
  %85 = load ptr, ptr %7, align 8, !tbaa !26
  %86 = call ptr @X509_NAME_ENTRY_dup(ptr noundef %85)
  store ptr %86, ptr %10, align 8, !tbaa !26
  %87 = icmp eq ptr %86, null
  br i1 %87, label %88, label %89

88:                                               ; preds = %84
  br label %127

89:                                               ; preds = %84
  %90 = load i32, ptr %9, align 4, !tbaa !8
  %91 = load ptr, ptr %10, align 8, !tbaa !26
  %92 = getelementptr inbounds nuw %struct.X509_name_entry_st, ptr %91, i32 0, i32 2
  store i32 %90, ptr %92, align 8, !tbaa !34
  %93 = load ptr, ptr %14, align 8, !tbaa !25
  %94 = call ptr @ossl_check_X509_NAME_ENTRY_sk_type(ptr noundef %93)
  %95 = load ptr, ptr %10, align 8, !tbaa !26
  %96 = call ptr @ossl_check_X509_NAME_ENTRY_type(ptr noundef %95)
  %97 = load i32, ptr %8, align 4, !tbaa !8
  %98 = call i32 @OPENSSL_sk_insert(ptr noundef %94, ptr noundef %96, i32 noundef %97)
  %99 = icmp ne i32 %98, 0
  br i1 %99, label %101, label %100

100:                                              ; preds = %89
  call void @ERR_new()
  call void @ERR_set_debug(ptr noundef @.str, i32 noundef 228, ptr noundef @__func__.X509_NAME_add_entry)
  call void (i32, i32, ptr, ...) @ERR_set_error(i32 noundef 11, i32 noundef 524303, ptr noundef null)
  br label %127

101:                                              ; preds = %89
  %102 = load i32, ptr %13, align 4, !tbaa !8
  %103 = icmp ne i32 %102, 0
  br i1 %103, label %104, label %126

104:                                              ; preds = %101
  %105 = load ptr, ptr %14, align 8, !tbaa !25
  %106 = call ptr @ossl_check_const_X509_NAME_ENTRY_sk_type(ptr noundef %105)
  %107 = call i32 @OPENSSL_sk_num(ptr noundef %106)
  store i32 %107, ptr %11, align 4, !tbaa !8
  %108 = load i32, ptr %8, align 4, !tbaa !8
  %109 = add nsw i32 %108, 1
  store i32 %109, ptr %12, align 4, !tbaa !8
  br label %110

110:                                              ; preds = %122, %104
  %111 = load i32, ptr %12, align 4, !tbaa !8
  %112 = load i32, ptr %11, align 4, !tbaa !8
  %113 = icmp slt i32 %111, %112
  br i1 %113, label %114, label %125

114:                                              ; preds = %110
  %115 = load ptr, ptr %14, align 8, !tbaa !25
  %116 = call ptr @ossl_check_const_X509_NAME_ENTRY_sk_type(ptr noundef %115)
  %117 = load i32, ptr %12, align 4, !tbaa !8
  %118 = call ptr @OPENSSL_sk_value(ptr noundef %116, i32 noundef %117)
  %119 = getelementptr inbounds nuw %struct.X509_name_entry_st, ptr %118, i32 0, i32 2
  %120 = load i32, ptr %119, align 8, !tbaa !34
  %121 = add nsw i32 %120, 1
  store i32 %121, ptr %119, align 8, !tbaa !34
  br label %122

122:                                              ; preds = %114
  %123 = load i32, ptr %12, align 4, !tbaa !8
  %124 = add nsw i32 %123, 1
  store i32 %124, ptr %12, align 4, !tbaa !8
  br label %110, !llvm.loop !38

125:                                              ; preds = %110
  br label %126

126:                                              ; preds = %125, %101
  store i32 1, ptr %5, align 4
  store i32 1, ptr %15, align 4
  br label %129

127:                                              ; preds = %100, %88
  %128 = load ptr, ptr %10, align 8, !tbaa !26
  call void @X509_NAME_ENTRY_free(ptr noundef %128)
  store i32 0, ptr %5, align 4
  store i32 1, ptr %15, align 4
  br label %129

129:                                              ; preds = %127, %126, %18
  call void @llvm.lifetime.end.p0(i64 8, ptr %14) #6
  call void @llvm.lifetime.end.p0(i64 4, ptr %13) #6
  call void @llvm.lifetime.end.p0(i64 4, ptr %12) #6
  call void @llvm.lifetime.end.p0(i64 4, ptr %11) #6
  call void @llvm.lifetime.end.p0(i64 8, ptr %10) #6
  %130 = load i32, ptr %5, align 4
  ret i32 %130
}