; Function Attrs: nounwind uwtable
define range(i32 0, 2) i32 @X509_NAME_add_entry(ptr noundef captures(address_is_null) %0, ptr noundef %1, i32 noundef %2, i32 noundef %3) local_unnamed_addr #0 {
  %5 = icmp eq ptr %0, null
  br i1 %5, label %.loopexit, label %6

6:                                                ; preds = %4
  %7 = load ptr, ptr %0, align 8, !tbaa !3
  %8 = tail call i32 @OPENSSL_sk_num(ptr noundef %7) #6
  %9 = icmp slt i32 %2, 0
  %10 = tail call i32 @llvm.smin.i32(i32 %2, i32 %8)
  %.039 = select i1 %9, i32 %8, i32 %10
  %11 = icmp eq i32 %3, 0
  %12 = getelementptr inbounds nuw i8, ptr %0, i64 8
  store i32 1, ptr %12, align 8, !tbaa !24
  %13 = icmp eq i32 %3, -1
  br i1 %13, label %14, label %21

14:                                               ; preds = %6
  %15 = icmp eq i32 %.039, 0
  br i1 %15, label %33, label %16

16:                                               ; preds = %14
  %17 = add nsw i32 %.039, -1
  %18 = tail call ptr @OPENSSL_sk_value(ptr noundef %7, i32 noundef %17) #6
  %19 = getelementptr inbounds nuw i8, ptr %18, i64 16
  %20 = load i32, ptr %19, align 8, !tbaa !25
  br label %33

21:                                               ; preds = %6
  %.not = icmp slt i32 %.039, %8
  br i1 %.not, label %29, label %22

22:                                               ; preds = %21
  %.not44 = icmp eq i32 %.039, 0
  br i1 %.not44, label %33, label %23

23:                                               ; preds = %22
  %24 = add nsw i32 %.039, -1
  %25 = tail call ptr @OPENSSL_sk_value(ptr noundef %7, i32 noundef %24) #6
  %26 = getelementptr inbounds nuw i8, ptr %25, i64 16
  %27 = load i32, ptr %26, align 8, !tbaa !25
  %28 = add nsw i32 %27, 1
  br label %33

29:                                               ; preds = %21
  %30 = tail call ptr @OPENSSL_sk_value(ptr noundef %7, i32 noundef %.039) #6
  %31 = getelementptr inbounds nuw i8, ptr %30, i64 16
  %32 = load i32, ptr %31, align 8, !tbaa !25
  br label %33

33:                                               ; preds = %22, %14, %29, %23, %16
  %.038 = phi i32 [ %20, %16 ], [ %28, %23 ], [ %32, %29 ], [ 0, %14 ], [ 0, %22 ]
  %.036.shrunk = phi i1 [ false, %16 ], [ %11, %23 ], [ %11, %29 ], [ true, %14 ], [ %11, %22 ]
  %34 = tail call ptr @X509_NAME_ENTRY_dup(ptr noundef %1) #6
  %35 = icmp eq ptr %34, null
  br i1 %35, label %48, label %36

36:                                               ; preds = %33
  %37 = getelementptr inbounds nuw i8, ptr %34, i64 16
  store i32 %.038, ptr %37, align 8, !tbaa !25
  %38 = tail call i32 @OPENSSL_sk_insert(ptr noundef %7, ptr noundef nonnull %34, i32 noundef %.039) #6
  %.not45 = icmp eq i32 %38, 0
  br i1 %.not45, label %39, label %40

39:                                               ; preds = %36
  tail call void @ERR_new() #6
  tail call void @ERR_set_debug(ptr noundef nonnull @.str, i32 noundef 228, ptr noundef nonnull @__func__.X509_NAME_add_entry) #6
  tail call void (i32, i32, ptr, ...) @ERR_set_error(i32 noundef 11, i32 noundef 524303, ptr noundef null) #6
  br label %48

40:                                               ; preds = %36
  br i1 %.036.shrunk, label %41, label %.loopexit

41:                                               ; preds = %40
  %42 = tail call i32 @OPENSSL_sk_num(ptr noundef %7) #6
  %.03746 = add nsw i32 %.039, 1
  %43 = icmp slt i32 %.03746, %42
  br i1 %43, label %.lr.ph, label %.loopexit

.lr.ph:                                           ; preds = %41, %.lr.ph
  %.03747 = phi i32 [ %.037, %.lr.ph ], [ %.03746, %41 ]
  %44 = tail call ptr @OPENSSL_sk_value(ptr noundef %7, i32 noundef %.03747) #6
  %45 = getelementptr inbounds nuw i8, ptr %44, i64 16
  %46 = load i32, ptr %45, align 8, !tbaa !25
  %47 = add nsw i32 %46, 1
  store i32 %47, ptr %45, align 8, !tbaa !25
  %.037 = add nsw i32 %.03747, 1
  %exitcond.not = icmp eq i32 %.037, %42
  br i1 %exitcond.not, label %.loopexit, label %.lr.ph, !llvm.loop !29

48:                                               ; preds = %33, %39
  tail call void @X509_NAME_ENTRY_free(ptr noundef %34) #6
  br label %.loopexit

.loopexit:                                        ; preds = %.lr.ph, %41, %40, %4, %48
  %.0 = phi i32 [ 0, %48 ], [ 0, %4 ], [ 1, %40 ], [ 1, %41 ], [ 1, %.lr.ph ]
  ret i32 %.0
}